; Function Attrs: nounwind uwtable
define internal fastcc range(i32 -173, 1) i32 @wc_RNG_HealthTestLocal(i32 noundef range(i32 0, 2) %0, ptr noundef %1, i32 noundef %2) unnamed_addr #0 {
  %4 = alloca [128 x i8], align 16
  call void @llvm.lifetime.start.p0(i64 128, ptr nonnull %4) #9
  %.not = icmp eq i32 %0, 0
  br i1 %.not, label %15, label %5

5:                                                ; preds = %3
  %6 = call i32 @wc_RNG_HealthTest_ex(i32 noundef 1, ptr noundef null, i32 noundef 0, ptr noundef nonnull @seedA_data, i32 noundef 48, ptr noundef nonnull @reseedSeedA_data, i32 noundef 32, ptr noundef nonnull %4, i32 noundef 128, ptr noundef %1, i32 poison)
  %7 = icmp eq i32 %6, 0
  br i1 %7, label %.lr.ph.i, label %.thread

.lr.ph.i:                                         ; preds = %5, %.lr.ph.i
  %indvars.iv.i = phi i64 [ %indvars.iv.next.i, %.lr.ph.i ], [ 0, %5 ]
  %.010.i = phi i32 [ %14, %.lr.ph.i ], [ 0, %5 ]
  %8 = getelementptr inbounds nuw i8, ptr %4, i64 %indvars.iv.i
  %9 = load i8, ptr %8, align 1, !tbaa !15
  %10 = getelementptr inbounds nuw i8, ptr @outputA_data, i64 %indvars.iv.i
  %11 = load i8, ptr %10, align 1, !tbaa !15
  %12 = xor i8 %11, %9
  %13 = zext i8 %12 to i32
  %14 = or i32 %.010.i, %13
  %indvars.iv.next.i = add nuw nsw i64 %indvars.iv.i, 1
  %exitcond.not.i = icmp eq i64 %indvars.iv.next.i, 128
  br i1 %exitcond.not.i, label %ConstantCompare.exit, label %.lr.ph.i, !llvm.loop !19

ConstantCompare.exit:                             ; preds = %.lr.ph.i
  %.not28 = icmp ne i32 %14, 0
  %spec.select = sext i1 %.not28 to i32
  br label %.thread

15:                                               ; preds = %3
  %16 = call i32 @wc_RNG_HealthTest_ex(i32 noundef 0, ptr noundef null, i32 noundef 0, ptr noundef nonnull @seedB_data, i32 noundef 48, ptr noundef null, i32 noundef 0, ptr noundef nonnull %4, i32 noundef 128, ptr noundef %1, i32 poison)
  %.not25 = icmp eq i32 %16, 0
  br i1 %.not25, label %.lr.ph.i30, label %.thread

.lr.ph.i30:                                       ; preds = %15, %.lr.ph.i30
  %indvars.iv.i31 = phi i64 [ %indvars.iv.next.i33, %.lr.ph.i30 ], [ 0, %15 ]
  %.010.i32 = phi i32 [ %23, %.lr.ph.i30 ], [ 0, %15 ]
  %17 = getelementptr inbounds nuw i8, ptr %4, i64 %indvars.iv.i31
  %18 = load i8, ptr %17, align 1, !tbaa !15
  %19 = getelementptr inbounds nuw i8, ptr @outputB_data, i64 %indvars.iv.i31
  %20 = load i8, ptr %19, align 1, !tbaa !15
  %21 = xor i8 %20, %18
  %22 = zext i8 %21 to i32
  %23 = or i32 %.010.i32, %22
  %indvars.iv.next.i33 = add nuw nsw i64 %indvars.iv.i31, 1
  %exitcond.not.i34 = icmp eq i64 %indvars.iv.next.i33, 128
  br i1 %exitcond.not.i34, label %24, label %.lr.ph.i30, !llvm.loop !19

24:                                               ; preds = %.lr.ph.i30
  %.not26.not = icmp eq i32 %23, 0
  br i1 %.not26.not, label %25, label %.thread

25:                                               ; preds = %24
  %26 = call i32 @wc_RNG_HealthTest_ex(i32 noundef 0, ptr noundef nonnull getelementptr inbounds nuw (i8, ptr @seedB_data, i64 32), i32 noundef 16, ptr noundef nonnull @seedB_data, i32 noundef 32, ptr noundef null, i32 noundef 0, ptr noundef nonnull %4, i32 noundef 128, ptr noundef %1, i32 poison)
  %27 = icmp eq i32 %26, 0
  br i1 %27, label %.lr.ph.i36, label %.thread

.lr.ph.i36:                                       ; preds = %25, %.lr.ph.i36
  %indvars.iv.i37 = phi i64 [ %indvars.iv.next.i39, %.lr.ph.i36 ], [ 0, %25 ]
  %.010.i38 = phi i32 [ %34, %.lr.ph.i36 ], [ 0, %25 ]
  %28 = getelementptr inbounds nuw i8, ptr %4, i64 %indvars.iv.i37
  %29 = load i8, ptr %28, align 1, !tbaa !15
  %30 = getelementptr inbounds nuw i8, ptr @outputB_data, i64 %indvars.iv.i37
  %31 = load i8, ptr %30, align 1, !tbaa !15
  %32 = xor i8 %31, %29
  %33 = zext i8 %32 to i32
  %34 = or i32 %.010.i38, %33
  %indvars.iv.next.i39 = add nuw nsw i64 %indvars.iv.i37, 1
  %exitcond.not.i40 = icmp eq i64 %indvars.iv.next.i39, 128
  br i1 %exitcond.not.i40, label %ConstantCompare.exit41, label %.lr.ph.i36, !llvm.loop !19

ConstantCompare.exit41:                           ; preds = %.lr.ph.i36
  %.not27 = icmp ne i32 %34, 0
  %spec.select29 = sext i1 %.not27 to i32
  br label %.thread

.thread:                                          ; preds = %15, %ConstantCompare.exit41, %ConstantCompare.exit, %24, %25, %5
  %.1 = phi i32 [ %6, %5 ], [ %spec.select, %ConstantCompare.exit ], [ %26, %25 ], [ -1, %24 ], [ %spec.select29, %ConstantCompare.exit41 ], [ %16, %15 ]
  call void @llvm.lifetime.end.p0(i64 128, ptr nonnull %4) #9
  ret i32 %.1
}